; Function Attrs: mustprogress nounwind uwtable
define hidden void @_ZN11CardTableRS22scan_old_to_young_refsEP17TenuredGenerationPP12HeapWordImpl(ptr nocapture noundef nonnull readonly align 8 dereferenceable(88) %0, ptr noundef %1, ptr noundef %2) local_unnamed_addr #0 align 2 {
  %4 = alloca %class.OldGenScanClosure, align 8
  %5 = getelementptr inbounds i8, ptr %1, i64 216
  %6 = load ptr, ptr %5, align 8
  %7 = load ptr, ptr %6, align 8
  %8 = ptrtoint ptr %7 to i64
  %9 = ptrtoint ptr %2 to i64
  %10 = sub i64 %9, %8
  %11 = icmp ult i64 %10, 8
  br i1 %11, label %28, label %12

12:                                               ; preds = %3
  %13 = lshr i64 %10, 3
  %14 = tail call noundef ptr @_ZN10SerialHeap4heapEv() #11
  %15 = getelementptr inbounds i8, ptr %14, i64 104
  %16 = load ptr, ptr %15, align 8
  %17 = getelementptr inbounds i8, ptr %16, i64 464
  %18 = load ptr, ptr %17, align 8
  %19 = getelementptr inbounds i8, ptr %4, i64 8
  store ptr %18, ptr %19, align 8
  %20 = getelementptr inbounds i8, ptr %4, i64 16
  store ptr %16, ptr %20, align 8
  %21 = getelementptr inbounds i8, ptr %4, i64 24
  %22 = getelementptr inbounds i8, ptr %16, i64 16
  %.sroa.0.0.copyload.i.i.i.i = load ptr, ptr %22, align 8
  %.sroa.2.0..sroa_idx.i.i.i.i = getelementptr inbounds i8, ptr %16, i64 24
  %.sroa.2.0.copyload.i.i.i.i = load i64, ptr %.sroa.2.0..sroa_idx.i.i.i.i, align 8
  %23 = getelementptr inbounds ptr, ptr %.sroa.0.0.copyload.i.i.i.i, i64 %.sroa.2.0.copyload.i.i.i.i
  store ptr %23, ptr %21, align 8
  store ptr getelementptr inbounds inrange(-16, 64) (i8, ptr @_ZTV17OldGenScanClosure, i64 16), ptr %4, align 8
  %24 = getelementptr inbounds i8, ptr %4, i64 32
  %25 = tail call noundef ptr @_ZN10SerialHeap4heapEv() #11
  %26 = getelementptr inbounds i8, ptr %25, i64 136
  %27 = load ptr, ptr %26, align 8
  store ptr %27, ptr %24, align 8
  call void @_ZN11CardTableRS22non_clean_card_iterateEP17TenuredGeneration9MemRegionP17OldGenScanClosure(ptr noundef nonnull align 8 dereferenceable(88) %0, ptr noundef nonnull %1, ptr %7, i64 %13, ptr noundef nonnull %4)
  br label %28

28:                                               ; preds = %12, %3
  ret void
}